target datalayout = "e-m:e-p270:32:32-p271:32:32-p272:64:64-i64:64-i128:128-f80:128-n8:16:32:64-S128"
target triple = "x86_64-pc-linux-gnu"

%"struct.(anonymous namespace)::PreprocessorDir" = type { i32, %"class.llvm::StringRef" }
%"class.llvm::StringRef" = type { ptr, i64 }
%"class.llvm::TGLexer" = type { ptr, ptr, %"class.llvm::StringRef", ptr, i32, %"class.std::__cxx11::basic_string", i64, i32, %"class.std::set", %"class.llvm::StringSet", %"class.std::vector" }
%"class.std::__cxx11::basic_string" = type { %"struct.std::__cxx11::basic_string<char>::_Alloc_hider", i64, %union.anon }
%"struct.std::__cxx11::basic_string<char>::_Alloc_hider" = type { ptr }
%union.anon = type { i64, [8 x i8] }
%"class.std::set" = type { %"class.std::_Rb_tree" }
%"class.std::_Rb_tree" = type { %"struct.std::_Rb_tree<std::__cxx11::basic_string<char>, std::__cxx11::basic_string<char>, std::_Identity<std::__cxx11::basic_string<char>>, std::less<std::__cxx11::basic_string<char>>>::_Rb_tree_impl" }
%"struct.std::_Rb_tree<std::__cxx11::basic_string<char>, std::__cxx11::basic_string<char>, std::_Identity<std::__cxx11::basic_string<char>>, std::less<std::__cxx11::basic_string<char>>>::_Rb_tree_impl" = type { [8 x i8], %"struct.std::_Rb_tree_header" }
%"struct.std::_Rb_tree_header" = type { %"struct.std::_Rb_tree_node_base", i64 }
%"struct.std::_Rb_tree_node_base" = type { i32, ptr, ptr, ptr }
%"class.llvm::StringSet" = type { %"class.llvm::StringMap" }
%"class.llvm::StringMap" = type { %"class.llvm::StringMapImpl" }
%"class.llvm::StringMapImpl" = type { ptr, i32, i32, i32, i32 }
%"class.std::vector" = type { %"struct.std::_Vector_base" }
%"struct.std::_Vector_base" = type { %"struct.std::_Vector_base<std::unique_ptr<std::vector<llvm::TGLexer::PreprocessorControlDesc>>, std::allocator<std::unique_ptr<std::vector<llvm::TGLexer::PreprocessorControlDesc>>>>::_Vector_impl" }
%"struct.std::_Vector_base<std::unique_ptr<std::vector<llvm::TGLexer::PreprocessorControlDesc>>, std::allocator<std::unique_ptr<std::vector<llvm::TGLexer::PreprocessorControlDesc>>>>::_Vector_impl" = type { %"struct.std::_Vector_base<std::unique_ptr<std::vector<llvm::TGLexer::PreprocessorControlDesc>>, std::allocator<std::unique_ptr<std::vector<llvm::TGLexer::PreprocessorControlDesc>>>>::_Vector_impl_data" }
%"struct.std::_Vector_base<std::unique_ptr<std::vector<llvm::TGLexer::PreprocessorControlDesc>>, std::allocator<std::unique_ptr<std::vector<llvm::TGLexer::PreprocessorControlDesc>>>>::_Vector_impl_data" = type { ptr, ptr, ptr }

; Function Attrs: mustprogress nounwind uwtable
define linkonce_odr hidden noundef ptr @_ZNK4llvm9StringRef4dataEv(ptr noundef nonnull align 8 dereferenceable(16) %0) #0 comdat align 2 {
  %2 = alloca ptr, align 8
  store ptr %0, ptr %2, align 8
  %3 = load ptr, ptr %2, align 8
  %4 = getelementptr inbounds nuw %"class.llvm::StringRef", ptr %3, i32 0, i32 0
  %5 = load ptr, ptr %4, align 8
  ret ptr %5
}

; Function Attrs: mustprogress nounwind uwtable
define linkonce_odr hidden noundef zeroext i1 @_ZNK4llvm9StringRef5emptyEv(ptr noundef nonnull align 8 dereferenceable(16) %0) #0 comdat align 2 {
  %2 = alloca ptr, align 8
  store ptr %0, ptr %2, align 8
  %3 = load ptr, ptr %2, align 8
  %4 = getelementptr inbounds nuw %"class.llvm::StringRef", ptr %3, i32 0, i32 1
  %5 = load i64, ptr %4, align 8
  %6 = icmp eq i64 %5, 0
  ret i1 %6
}

; Function Attrs: mustprogress nounwind uwtable
define linkonce_odr hidden noundef zeroext i1 @_ZN4llvmeqENS_9StringRefES0_(ptr %0, i64 %1, ptr %2, i64 %3) #0 comdat {
  %5 = alloca i1, align 1
  %6 = alloca %"class.llvm::StringRef", align 8
  %7 = alloca %"class.llvm::StringRef", align 8
  %8 = getelementptr inbounds nuw { ptr, i64 }, ptr %6, i32 0, i32 0
  store ptr %0, ptr %8, align 8
  %9 = getelementptr inbounds nuw { ptr, i64 }, ptr %6, i32 0, i32 1
  store i64 %1, ptr %9, align 8
  %10 = getelementptr inbounds nuw { ptr, i64 }, ptr %7, i32 0, i32 0
  store ptr %2, ptr %10, align 8
  %11 = getelementptr inbounds nuw { ptr, i64 }, ptr %7, i32 0, i32 1
  store i64 %3, ptr %11, align 8
  %12 = call noundef i64 @_ZNK4llvm9StringRef4sizeEv(ptr noundef nonnull align 8 dereferenceable(16) %6)
  %13 = call noundef i64 @_ZNK4llvm9StringRef4sizeEv(ptr noundef nonnull align 8 dereferenceable(16) %7)
  %14 = icmp ne i64 %12, %13
  br i1 %14, label %15, label %16

15:                                               ; preds = %4
  store i1 false, ptr %5, align 1
  br label %25

16:                                               ; preds = %4
  %17 = call noundef zeroext i1 @_ZNK4llvm9StringRef5emptyEv(ptr noundef nonnull align 8 dereferenceable(16) %6)
  br i1 %17, label %18, label %19

18:                                               ; preds = %16
  store i1 true, ptr %5, align 1
  br label %25

19:                                               ; preds = %16
  %20 = call noundef ptr @_ZNK4llvm9StringRef4dataEv(ptr noundef nonnull align 8 dereferenceable(16) %6)
  %21 = call noundef ptr @_ZNK4llvm9StringRef4dataEv(ptr noundef nonnull align 8 dereferenceable(16) %7)
  %22 = call noundef i64 @_ZNK4llvm9StringRef4sizeEv(ptr noundef nonnull align 8 dereferenceable(16) %6)
  %23 = call i32 @memcmp(ptr noundef %20, ptr noundef %21, i64 noundef %22) #14
  %24 = icmp eq i32 %23, 0
  store i1 %24, ptr %5, align 1
  br label %25

25:                                               ; preds = %19, %18, %15
  %26 = load i1, ptr %5, align 1
  ret i1 %26
}

; Function Attrs: mustprogress nounwind uwtable
define dso_local noundef i32 @_ZNK4llvm7TGLexer12peekNextCharEi(ptr noundef nonnull align 8 dereferenceable(192) %0, i32 noundef %1) #0 align 2 {
  %3 = alloca ptr, align 8
  %4 = alloca i32, align 4
  store ptr %0, ptr %3, align 8
  store i32 %1, ptr %4, align 4
  %5 = load ptr, ptr %3, align 8
  %6 = getelementptr inbounds nuw %"class.llvm::TGLexer", ptr %5, i32 0, i32 1
  %7 = load ptr, ptr %6, align 8
  %8 = load i32, ptr %4, align 4
  %9 = sext i32 %8 to i64
  %10 = getelementptr inbounds i8, ptr %7, i64 %9
  %11 = load i8, ptr %10, align 1
  %12 = sext i8 %11 to i32
  ret i32 %12
}

; Function Attrs: mustprogress nounwind uwtable
define linkonce_odr hidden noundef zeroext i1 @_ZN4llvmneENS_9StringRefES0_(ptr %0, i64 %1, ptr %2, i64 %3) #0 comdat {
  %5 = alloca %"class.llvm::StringRef", align 8
  %6 = alloca %"class.llvm::StringRef", align 8
  %7 = alloca %"class.llvm::StringRef", align 8
  %8 = alloca %"class.llvm::StringRef", align 8
  %9 = getelementptr inbounds nuw { ptr, i64 }, ptr %5, i32 0, i32 0
  store ptr %0, ptr %9, align 8
  %10 = getelementptr inbounds nuw { ptr, i64 }, ptr %5, i32 0, i32 1
  store i64 %1, ptr %10, align 8
  %11 = getelementptr inbounds nuw { ptr, i64 }, ptr %6, i32 0, i32 0
  store ptr %2, ptr %11, align 8
  %12 = getelementptr inbounds nuw { ptr, i64 }, ptr %6, i32 0, i32 1
  store i64 %3, ptr %12, align 8
  call void @llvm.memcpy.p0.p0.i64(ptr align 8 %7, ptr align 8 %5, i64 16, i1 false)
  call void @llvm.memcpy.p0.p0.i64(ptr align 8 %8, ptr align 8 %6, i64 16, i1 false)
  %13 = getelementptr inbounds nuw { ptr, i64 }, ptr %7, i32 0, i32 0
  %14 = load ptr, ptr %13, align 8
  %15 = getelementptr inbounds nuw { ptr, i64 }, ptr %7, i32 0, i32 1
  %16 = load i64, ptr %15, align 8
  %17 = getelementptr inbounds nuw { ptr, i64 }, ptr %8, i32 0, i32 0
  %18 = load ptr, ptr %17, align 8
  %19 = getelementptr inbounds nuw { ptr, i64 }, ptr %8, i32 0, i32 1
  %20 = load i64, ptr %19, align 8
  %21 = call noundef zeroext i1 @_ZN4llvmeqENS_9StringRefES0_(ptr %14, i64 %16, ptr %18, i64 %20)
  %22 = xor i1 %21, true
  ret i1 %22
}

; Function Attrs: mustprogress nounwind uwtable
define linkonce_odr hidden void @_ZN4llvm9StringRefC2EPKcm(ptr noundef nonnull align 8 dereferenceable(16) %0, ptr noundef %1, i64 noundef %2) unnamed_addr #0 comdat align 2 {
  %4 = alloca ptr, align 8
  %5 = alloca ptr, align 8
  %6 = alloca i64, align 8
  store ptr %0, ptr %4, align 8
  store ptr %1, ptr %5, align 8
  store i64 %2, ptr %6, align 8
  %7 = load ptr, ptr %4, align 8
  %8 = getelementptr inbounds nuw %"class.llvm::StringRef", ptr %7, i32 0, i32 0
  %9 = load ptr, ptr %5, align 8
  store ptr %9, ptr %8, align 8
  %10 = getelementptr inbounds nuw %"class.llvm::StringRef", ptr %7, i32 0, i32 1
  %11 = load i64, ptr %6, align 8
  store i64 %11, ptr %10, align 8
  ret void
}

; Function Attrs: mustprogress nounwind uwtable
define linkonce_odr hidden noundef i64 @_ZNK4llvm9StringRef4sizeEv(ptr noundef nonnull align 8 dereferenceable(16) %0) #0 comdat align 2 {
  %2 = alloca ptr, align 8
  store ptr %0, ptr %2, align 8
  %3 = load ptr, ptr %2, align 8
  %4 = getelementptr inbounds nuw %"class.llvm::StringRef", ptr %3, i32 0, i32 1
  %5 = load i64, ptr %4, align 8
  ret i64 %5
}

; Function Attrs: mustprogress nounwind uwtable
define dso_local noundef i32 @_ZNK4llvm7TGLexer15prepIsDirectiveEv(ptr noundef nonnull align 8 dereferenceable(192) %0) #0 align 2 {
  %2 = alloca i32, align 4
  %3 = alloca ptr, align 8
  %4 = alloca ptr, align 8
  %5 = alloca ptr, align 8
  %6 = alloca ptr, align 8
  %7 = alloca %"struct.(anonymous namespace)::PreprocessorDir", align 8
  %8 = alloca %"class.llvm::StringRef", align 8
  %9 = alloca %"class.llvm::StringRef", align 8
  %10 = alloca i32, align 4
  store ptr %0, ptr %3, align 8
  %11 = load ptr, ptr %3, align 8
  store ptr @_ZL16PreprocessorDirs, ptr %4, align 8
  store ptr @_ZL16PreprocessorDirs, ptr %5, align 8
  store ptr getelementptr inbounds (%"struct.(anonymous namespace)::PreprocessorDir", ptr @_ZL16PreprocessorDirs, i64 5), ptr %6, align 8
  br label %12

12:                                               ; preds = %74, %1
  %13 = load ptr, ptr %5, align 8
  %14 = load ptr, ptr %6, align 8
  %15 = icmp ne ptr %13, %14
  br i1 %15, label %16, label %77

16:                                               ; preds = %12
  %17 = load ptr, ptr %5, align 8
  call void @llvm.memcpy.p0.p0.i64(ptr align 8 %7, ptr align 8 %17, i64 24, i1 false)
  %18 = getelementptr inbounds nuw %"class.llvm::TGLexer", ptr %11, i32 0, i32 1
  %19 = load ptr, ptr %18, align 8
  %20 = getelementptr inbounds nuw %"struct.(anonymous namespace)::PreprocessorDir", ptr %7, i32 0, i32 1
  %21 = call noundef i64 @_ZNK4llvm9StringRef4sizeEv(ptr noundef nonnull align 8 dereferenceable(16) %20)
  call void @_ZN4llvm9StringRefC2EPKcm(ptr noundef nonnull align 8 dereferenceable(16) %8, ptr noundef %19, i64 noundef %21)
  %22 = getelementptr inbounds nuw %"struct.(anonymous namespace)::PreprocessorDir", ptr %7, i32 0, i32 1
  call void @llvm.memcpy.p0.p0.i64(ptr align 8 %9, ptr align 8 %22, i64 16, i1 false)
  %23 = getelementptr inbounds nuw { ptr, i64 }, ptr %8, i32 0, i32 0
  %24 = load ptr, ptr %23, align 8
  %25 = getelementptr inbounds nuw { ptr, i64 }, ptr %8, i32 0, i32 1
  %26 = load i64, ptr %25, align 8
  %27 = getelementptr inbounds nuw { ptr, i64 }, ptr %9, i32 0, i32 0
  %28 = load ptr, ptr %27, align 8
  %29 = getelementptr inbounds nuw { ptr, i64 }, ptr %9, i32 0, i32 1
  %30 = load i64, ptr %29, align 8
  %31 = call noundef zeroext i1 @_ZN4llvmneENS_9StringRefES0_(ptr %24, i64 %26, ptr %28, i64 %30)
  br i1 %31, label %32, label %33

32:                                               ; preds = %16
  br label %74

33:                                               ; preds = %16
  %34 = getelementptr inbounds nuw %"struct.(anonymous namespace)::PreprocessorDir", ptr %7, i32 0, i32 1
  %35 = call noundef i64 @_ZNK4llvm9StringRef4sizeEv(ptr noundef nonnull align 8 dereferenceable(16) %34)
  %36 = trunc i64 %35 to i32
  %37 = call noundef i32 @_ZNK4llvm7TGLexer12peekNextCharEi(ptr noundef nonnull align 8 dereferenceable(192) %11, i32 noundef %36)
  store i32 %37, ptr %10, align 4
  %38 = load i32, ptr %10, align 4
  %39 = icmp eq i32 %38, 32
  br i1 %39, label %52, label %40

40:                                               ; preds = %33
  %41 = load i32, ptr %10, align 4
  %42 = icmp eq i32 %41, 9
  br i1 %42, label %52, label %43

43:                                               ; preds = %40
  %44 = load i32, ptr %10, align 4
  %45 = icmp eq i32 %44, -1
  br i1 %45, label %52, label %46

46:                                               ; preds = %43
  %47 = load i32, ptr %10, align 4
  %48 = icmp eq i32 %47, 10
  br i1 %48, label %52, label %49

49:                                               ; preds = %46
  %50 = load i32, ptr %10, align 4
  %51 = icmp eq i32 %50, 13
  br i1 %51, label %52, label %55

52:                                               ; preds = %49, %46, %43, %40, %33
  %53 = getelementptr inbounds nuw %"struct.(anonymous namespace)::PreprocessorDir", ptr %7, i32 0, i32 0
  %54 = load i32, ptr %53, align 8
  store i32 %54, ptr %2, align 4
  br label %78

55:                                               ; preds = %49
  %56 = load i32, ptr %10, align 4
  %57 = icmp eq i32 %56, 47
  br i1 %57, label %58, label %73

58:                                               ; preds = %55
  %59 = getelementptr inbounds nuw %"struct.(anonymous namespace)::PreprocessorDir", ptr %7, i32 0, i32 1
  %60 = call noundef i64 @_ZNK4llvm9StringRef4sizeEv(ptr noundef nonnull align 8 dereferenceable(16) %59)
  %61 = add i64 %60, 1
  %62 = trunc i64 %61 to i32
  %63 = call noundef i32 @_ZNK4llvm7TGLexer12peekNextCharEi(ptr noundef nonnull align 8 dereferenceable(192) %11, i32 noundef %62)
  store i32 %63, ptr %10, align 4
  %64 = load i32, ptr %10, align 4
  %65 = icmp eq i32 %64, 42
  br i1 %65, label %69, label %66

66:                                               ; preds = %58
  %67 = load i32, ptr %10, align 4
  %68 = icmp eq i32 %67, 47
  br i1 %68, label %69, label %72

69:                                               ; preds = %66, %58
  %70 = getelementptr inbounds nuw %"struct.(anonymous namespace)::PreprocessorDir", ptr %7, i32 0, i32 0
  %71 = load i32, ptr %70, align 8
  store i32 %71, ptr %2, align 4
  br label %78

72:                                               ; preds = %66
  br label %73

73:                                               ; preds = %72, %55
  br label %74

74:                                               ; preds = %73, %32
  %75 = load ptr, ptr %5, align 8
  %76 = getelementptr inbounds %"struct.(anonymous namespace)::PreprocessorDir", ptr %75, i32 1
  store ptr %76, ptr %5, align 8
  br label %12

77:                                               ; preds = %12
  store i32 1, ptr %2, align 4
  br label %78

78:                                               ; preds = %77, %69, %52
  %79 = load i32, ptr %2, align 4
  ret i32 %79
}