; Function Attrs: mustprogress nofree nounwind willreturn memory(read, inaccessiblemem: none) uwtable
define dso_local noundef i32 @_ZNK4llvm7TGLexer15prepIsDirectiveEv(ptr nocapture noundef nonnull readonly align 8 dereferenceable(192) %0) local_unnamed_addr #8 align 2 {
  %2 = getelementptr inbounds nuw i8, ptr %0, i64 8
  %3 = load ptr, ptr %2, align 8
  br label %4

4:                                                ; preds = %1, %13
  %.022.idx39 = phi i64 [ 0, %1 ], [ %.022.add, %13 ]
  %.022.ptr = getelementptr inbounds i8, ptr @_ZL16PreprocessorDirs, i64 %.022.idx39
  %.sroa.4.0..022.ptr.sroa_idx = getelementptr inbounds i8, ptr %.022.ptr, i64 16
  %.sroa.4.0.copyload = load i64, ptr %.sroa.4.0..022.ptr.sroa_idx, align 8
  %5 = icmp eq i64 %.sroa.4.0.copyload, 0
  br i1 %5, label %_ZN4llvmneENS_9StringRefES0_.exit.thread, label %_ZN4llvmneENS_9StringRefES0_.exit

_ZN4llvmneENS_9StringRefES0_.exit:                ; preds = %4
  %.sroa.326.0..022.ptr.sroa_idx = getelementptr inbounds i8, ptr %.022.ptr, i64 8
  %.sroa.326.0.copyload = load ptr, ptr %.sroa.326.0..022.ptr.sroa_idx, align 8
  %bcmp.i.i = tail call i32 @bcmp(ptr %3, ptr %.sroa.326.0.copyload, i64 %.sroa.4.0.copyload)
  %.not31 = icmp eq i32 %bcmp.i.i, 0
  br i1 %.not31, label %_ZN4llvmneENS_9StringRefES0_.exit.thread, label %13

_ZN4llvmneENS_9StringRefES0_.exit.thread:         ; preds = %4, %_ZN4llvmneENS_9StringRefES0_.exit
  %sext = shl i64 %.sroa.4.0.copyload, 32
  %6 = ashr exact i64 %sext, 32
  %7 = getelementptr inbounds i8, ptr %3, i64 %6
  %8 = load i8, ptr %7, align 1
  switch i8 %8, label %13 [
    i8 -1, label %.split.loop.exit35.sink.split
    i8 32, label %.split.loop.exit35.sink.split
    i8 13, label %.split.loop.exit35.sink.split
    i8 10, label %.split.loop.exit35.sink.split
    i8 9, label %.split.loop.exit35.sink.split
    i8 47, label %9
  ]

9:                                                ; preds = %_ZN4llvmneENS_9StringRefES0_.exit.thread
  %sext32 = add i64 %sext, 4294967296
  %10 = ashr exact i64 %sext32, 32
  %11 = getelementptr inbounds i8, ptr %3, i64 %10
  %12 = load i8, ptr %11, align 1
  switch i8 %12, label %13 [
    i8 47, label %.split.loop.exit35.sink.split
    i8 42, label %.split.loop.exit35.sink.split
  ]

13:                                               ; preds = %9, %_ZN4llvmneENS_9StringRefES0_.exit.thread, %_ZN4llvmneENS_9StringRefES0_.exit
  %.022.add = add nuw nsw i64 %.022.idx39, 24
  %.not = icmp eq i64 %.022.add, 120
  br i1 %.not, label %.split.loop.exit35, label %4

.split.loop.exit35.sink.split:                    ; preds = %_ZN4llvmneENS_9StringRefES0_.exit.thread, %_ZN4llvmneENS_9StringRefES0_.exit.thread, %_ZN4llvmneENS_9StringRefES0_.exit.thread, %_ZN4llvmneENS_9StringRefES0_.exit.thread, %_ZN4llvmneENS_9StringRefES0_.exit.thread, %9, %9
  %.sroa.024.0.copyload.le = load i32, ptr %.022.ptr, align 8
  br label %.split.loop.exit35

.split.loop.exit35:                               ; preds = %13, %.split.loop.exit35.sink.split
  %.0 = phi i32 [ %.sroa.024.0.copyload.le, %.split.loop.exit35.sink.split ], [ 1, %13 ]
  ret i32 %.0
}